target datalayout = "e-m:e-p270:32:32-p271:32:32-p272:64:64-i64:64-i128:128-f80:128-n8:16:32:64-S128"
target triple = "x86_64-pc-linux-gnu"

%union.UElement = type { ptr }
%"struct.std::atomic" = type { %"struct.std::__atomic_base" }
%"struct.std::__atomic_base" = type { i32 }
%"class.icu_77::UnifiedCache" = type { %"class.icu_77::UnifiedCacheBase", ptr, i32, i32, i32, i32, i32, i64, ptr }
%"class.icu_77::UnifiedCacheBase" = type { %"class.icu_77::UObject" }
%"class.icu_77::UObject" = type { ptr }
%"class.icu_77::SharedObject" = type { %"class.icu_77::UObject", i32, %"struct.std::atomic", ptr }
%struct.UHashElement = type { i32, %union.UElement, %union.UElement }
%"class.icu_77::CacheKeyBase" = type <{ %"class.icu_77::UObject", i32, i8, [3 x i8] }>

; Function Attrs: alwaysinline mustprogress nounwind uwtable
define linkonce_odr noundef i32 @_ZNSt13__atomic_baseIiE9fetch_addEiSt12memory_order(ptr noundef nonnull align 4 dereferenceable(4) %0, i32 noundef %1, i32 noundef %2) #9 comdat align 2 {
  %4 = alloca ptr, align 8
  %5 = alloca i32, align 4
  %6 = alloca i32, align 4
  %7 = alloca i32, align 4
  %8 = alloca i32, align 4
  store ptr %0, ptr %4, align 8, !tbaa !47
  store i32 %1, ptr %5, align 4, !tbaa !49
  store i32 %2, ptr %6, align 4, !tbaa !79
  %9 = load ptr, ptr %4, align 8
  %10 = getelementptr inbounds nuw %"struct.std::__atomic_base", ptr %9, i32 0, i32 0
  %11 = load i32, ptr %6, align 4, !tbaa !79
  %12 = load i32, ptr %5, align 4, !tbaa !49
  store i32 %12, ptr %7, align 4, !tbaa !49
  switch i32 %11, label %13 [
    i32 1, label %16
    i32 2, label %16
    i32 3, label %19
    i32 4, label %22
    i32 5, label %25
  ]

13:                                               ; preds = %3
  %14 = load i32, ptr %7, align 4
  %15 = atomicrmw add ptr %10, i32 %14 monotonic, align 4
  store i32 %15, ptr %8, align 4
  br label %28

16:                                               ; preds = %3, %3
  %17 = load i32, ptr %7, align 4
  %18 = atomicrmw add ptr %10, i32 %17 acquire, align 4
  store i32 %18, ptr %8, align 4
  br label %28

19:                                               ; preds = %3
  %20 = load i32, ptr %7, align 4
  %21 = atomicrmw add ptr %10, i32 %20 release, align 4
  store i32 %21, ptr %8, align 4
  br label %28

22:                                               ; preds = %3
  %23 = load i32, ptr %7, align 4
  %24 = atomicrmw add ptr %10, i32 %23 acq_rel, align 4
  store i32 %24, ptr %8, align 4
  br label %28

25:                                               ; preds = %3
  %26 = load i32, ptr %7, align 4
  %27 = atomicrmw add ptr %10, i32 %26 seq_cst, align 4
  store i32 %27, ptr %8, align 4
  br label %28

28:                                               ; preds = %25, %22, %19, %16, %13
  %29 = load i32, ptr %8, align 4, !tbaa !49
  ret i32 %29
}

; Function Attrs: alwaysinline mustprogress nounwind uwtable
define linkonce_odr noundef i32 @_ZNSt13__atomic_baseIiE9fetch_subEiSt12memory_order(ptr noundef nonnull align 4 dereferenceable(4) %0, i32 noundef %1, i32 noundef %2) #9 comdat align 2 {
  %4 = alloca ptr, align 8
  %5 = alloca i32, align 4
  %6 = alloca i32, align 4
  %7 = alloca i32, align 4
  %8 = alloca i32, align 4
  store ptr %0, ptr %4, align 8, !tbaa !47
  store i32 %1, ptr %5, align 4, !tbaa !49
  store i32 %2, ptr %6, align 4, !tbaa !79
  %9 = load ptr, ptr %4, align 8
  %10 = getelementptr inbounds nuw %"struct.std::__atomic_base", ptr %9, i32 0, i32 0
  %11 = load i32, ptr %6, align 4, !tbaa !79
  %12 = load i32, ptr %5, align 4, !tbaa !49
  store i32 %12, ptr %7, align 4, !tbaa !49
  switch i32 %11, label %13 [
    i32 1, label %16
    i32 2, label %16
    i32 3, label %19
    i32 4, label %22
    i32 5, label %25
  ]

13:                                               ; preds = %3
  %14 = load i32, ptr %7, align 4
  %15 = atomicrmw sub ptr %10, i32 %14 monotonic, align 4
  store i32 %15, ptr %8, align 4
  br label %28

16:                                               ; preds = %3, %3
  %17 = load i32, ptr %7, align 4
  %18 = atomicrmw sub ptr %10, i32 %17 acquire, align 4
  store i32 %18, ptr %8, align 4
  br label %28

19:                                               ; preds = %3
  %20 = load i32, ptr %7, align 4
  %21 = atomicrmw sub ptr %10, i32 %20 release, align 4
  store i32 %21, ptr %8, align 4
  br label %28

22:                                               ; preds = %3
  %23 = load i32, ptr %7, align 4
  %24 = atomicrmw sub ptr %10, i32 %23 acq_rel, align 4
  store i32 %24, ptr %8, align 4
  br label %28

25:                                               ; preds = %3
  %26 = load i32, ptr %7, align 4
  %27 = atomicrmw sub ptr %10, i32 %26 seq_cst, align 4
  store i32 %27, ptr %8, align 4
  br label %28

28:                                               ; preds = %25, %22, %19, %16, %13
  %29 = load i32, ptr %8, align 4, !tbaa !49
  ret i32 %29
}

; Function Attrs: inlinehint mustprogress nounwind uwtable
define linkonce_odr noundef i32 @_ZN6icu_7715umtx_atomic_incEPSt6atomicIiE(ptr noundef %0) #6 comdat {
  %2 = alloca ptr, align 8
  store ptr %0, ptr %2, align 8, !tbaa !77
  %3 = load ptr, ptr %2, align 8, !tbaa !77
  %4 = call noundef i32 @_ZNSt13__atomic_baseIiE9fetch_addEiSt12memory_order(ptr noundef nonnull align 4 dereferenceable(4) %3, i32 noundef 1, i32 noundef 5) #12
  %5 = add nsw i32 %4, 1
  ret i32 %5
}

; Function Attrs: inlinehint mustprogress nounwind uwtable
define linkonce_odr noundef i32 @_ZN6icu_7715umtx_atomic_decEPSt6atomicIiE(ptr noundef %0) #6 comdat {
  %2 = alloca ptr, align 8
  store ptr %0, ptr %2, align 8, !tbaa !77
  %3 = load ptr, ptr %2, align 8, !tbaa !77
  %4 = call noundef i32 @_ZNSt13__atomic_baseIiE9fetch_subEiSt12memory_order(ptr noundef nonnull align 4 dereferenceable(4) %3, i32 noundef 1, i32 noundef 5) #12
  %5 = sub nsw i32 %4, 1
  ret i32 %5
}

; Function Attrs: mustprogress uwtable
define noundef i32 @_ZNK6icu_7712UnifiedCache10addHardRefEPKNS_12SharedObjectE(ptr noundef nonnull align 8 dereferenceable(56) %0, ptr noundef %1) #0 align 2 {
  %3 = alloca ptr, align 8
  %4 = alloca ptr, align 8
  %5 = alloca i32, align 4
  store ptr %0, ptr %3, align 8, !tbaa !14
  store ptr %1, ptr %4, align 8, !tbaa !46
  %6 = load ptr, ptr %3, align 8
  call void @llvm.lifetime.start.p0(i64 4, ptr %5) #12
  store i32 0, ptr %5, align 4, !tbaa !49
  %7 = load ptr, ptr %4, align 8, !tbaa !46
  %8 = icmp ne ptr %7, null
  br i1 %8, label %9, label %20

9:                                                ; preds = %2
  %10 = load ptr, ptr %4, align 8, !tbaa !46
  %11 = getelementptr inbounds nuw %"class.icu_77::SharedObject", ptr %10, i32 0, i32 2
  %12 = call noundef i32 @_ZN6icu_7715umtx_atomic_incEPSt6atomicIiE(ptr noundef %11)
  store i32 %12, ptr %5, align 4, !tbaa !49
  %13 = load i32, ptr %5, align 4, !tbaa !49
  %14 = icmp eq i32 %13, 1
  br i1 %14, label %15, label %19

15:                                               ; preds = %9
  %16 = getelementptr inbounds nuw %"class.icu_77::UnifiedCache", ptr %6, i32 0, i32 4
  %17 = load i32, ptr %16, align 8, !tbaa !36
  %18 = add nsw i32 %17, 1
  store i32 %18, ptr %16, align 8, !tbaa !36
  br label %19

19:                                               ; preds = %15, %9
  br label %20

20:                                               ; preds = %19, %2
  %21 = load i32, ptr %5, align 4, !tbaa !49
  call void @llvm.lifetime.end.p0(i64 4, ptr %5) #12
  ret i32 %21
}

; Function Attrs: mustprogress uwtable
define noundef i32 @_ZNK6icu_7712UnifiedCache13removeHardRefEPKNS_12SharedObjectE(ptr noundef nonnull align 8 dereferenceable(56) %0, ptr noundef %1) #0 align 2 {
  %3 = alloca ptr, align 8
  %4 = alloca ptr, align 8
  %5 = alloca i32, align 4
  store ptr %0, ptr %3, align 8, !tbaa !14
  store ptr %1, ptr %4, align 8, !tbaa !46
  %6 = load ptr, ptr %3, align 8
  call void @llvm.lifetime.start.p0(i64 4, ptr %5) #12
  store i32 0, ptr %5, align 4, !tbaa !49
  %7 = load ptr, ptr %4, align 8, !tbaa !46
  %8 = icmp ne ptr %7, null
  br i1 %8, label %9, label %20

9:                                                ; preds = %2
  %10 = load ptr, ptr %4, align 8, !tbaa !46
  %11 = getelementptr inbounds nuw %"class.icu_77::SharedObject", ptr %10, i32 0, i32 2
  %12 = call noundef i32 @_ZN6icu_7715umtx_atomic_decEPSt6atomicIiE(ptr noundef %11)
  store i32 %12, ptr %5, align 4, !tbaa !49
  %13 = load i32, ptr %5, align 4, !tbaa !49
  %14 = icmp eq i32 %13, 0
  br i1 %14, label %15, label %19

15:                                               ; preds = %9
  %16 = getelementptr inbounds nuw %"class.icu_77::UnifiedCache", ptr %6, i32 0, i32 4
  %17 = load i32, ptr %16, align 8, !tbaa !36
  %18 = add nsw i32 %17, -1
  store i32 %18, ptr %16, align 8, !tbaa !36
  br label %19

19:                                               ; preds = %15, %9
  br label %20

20:                                               ; preds = %19, %2
  %21 = load i32, ptr %5, align 4, !tbaa !49
  call void @llvm.lifetime.end.p0(i64 4, ptr %5) #12
  ret i32 %21
}

; Function Attrs: mustprogress uwtable
define void @_ZNK6icu_7712UnifiedCache6_fetchEPK12UHashElementRPKNS_12SharedObjectER10UErrorCode(ptr noundef nonnull align 8 dereferenceable(56) %0, ptr noundef %1, ptr noundef nonnull align 8 dereferenceable(8) %2, ptr noundef nonnull align 4 dereferenceable(4) %3) #0 align 2 {
  %5 = alloca ptr, align 8
  %6 = alloca ptr, align 8
  %7 = alloca ptr, align 8
  %8 = alloca ptr, align 8
  %9 = alloca ptr, align 8
  store ptr %0, ptr %5, align 8, !tbaa !14
  store ptr %1, ptr %6, align 8, !tbaa !56
  store ptr %2, ptr %7, align 8, !tbaa !65
  store ptr %3, ptr %8, align 8, !tbaa !11
  %10 = load ptr, ptr %5, align 8
  call void @llvm.lifetime.start.p0(i64 8, ptr %9) #12
  %11 = load ptr, ptr %6, align 8, !tbaa !56
  %12 = getelementptr inbounds nuw %struct.UHashElement, ptr %11, i32 0, i32 2
  %13 = load ptr, ptr %12, align 8, !tbaa !3
  store ptr %13, ptr %9, align 8, !tbaa !6
  %14 = load ptr, ptr %9, align 8, !tbaa !6
  %15 = getelementptr inbounds nuw %"class.icu_77::CacheKeyBase", ptr %14, i32 0, i32 1
  %16 = load i32, ptr %15, align 8, !tbaa !60
  %17 = load ptr, ptr %8, align 8, !tbaa !11
  store i32 %16, ptr %17, align 4, !tbaa !12
  %18 = load ptr, ptr %7, align 8, !tbaa !65
  %19 = load ptr, ptr %18, align 8, !tbaa !46
  %20 = call noundef i32 @_ZNK6icu_7712UnifiedCache13removeHardRefEPKNS_12SharedObjectE(ptr noundef nonnull align 8 dereferenceable(56) %10, ptr noundef %19)
  %21 = load ptr, ptr %6, align 8, !tbaa !56
  %22 = getelementptr inbounds nuw %struct.UHashElement, ptr %21, i32 0, i32 1
  %23 = load ptr, ptr %22, align 8, !tbaa !3
  %24 = load ptr, ptr %7, align 8, !tbaa !65
  store ptr %23, ptr %24, align 8, !tbaa !46
  %25 = load ptr, ptr %7, align 8, !tbaa !65
  %26 = load ptr, ptr %25, align 8, !tbaa !46
  %27 = call noundef i32 @_ZNK6icu_7712UnifiedCache10addHardRefEPKNS_12SharedObjectE(ptr noundef nonnull align 8 dereferenceable(56) %10, ptr noundef %26)
  call void @llvm.lifetime.end.p0(i64 8, ptr %9) #12
  ret void
}