; Function Attrs: mustprogress nofree norecurse nounwind willreturn memory(readwrite, inaccessiblemem: none) uwtable
define void @_ZNK6icu_7712UnifiedCache6_fetchEPK12UHashElementRPKNS_12SharedObjectER10UErrorCode(ptr noundef nonnull align 8 captures(none) dereferenceable(56) %0, ptr noundef readonly captures(none) %1, ptr noundef nonnull align 8 captures(none) dereferenceable(8) %2, ptr noundef nonnull writeonly align 4 captures(none) dereferenceable(4) initializes((0, 4)) %3) local_unnamed_addr #10 align 2 {
  %5 = getelementptr inbounds nuw i8, ptr %1, i64 16
  %6 = load ptr, ptr %5, align 8, !tbaa !41
  %7 = getelementptr inbounds nuw i8, ptr %6, i64 8
  %8 = load i32, ptr %7, align 8, !tbaa !42
  store i32 %8, ptr %3, align 4, !tbaa !6
  %9 = load ptr, ptr %2, align 8, !tbaa !48
  %.not.i = icmp eq ptr %9, null
  br i1 %.not.i, label %_ZNK6icu_7712UnifiedCache13removeHardRefEPKNS_12SharedObjectE.exit, label %10

10:                                               ; preds = %4
  %11 = getelementptr inbounds nuw i8, ptr %9, i64 12
  %12 = atomicrmw sub ptr %11, i32 1 seq_cst, align 4
  %13 = icmp eq i32 %12, 1
  br i1 %13, label %14, label %_ZNK6icu_7712UnifiedCache13removeHardRefEPKNS_12SharedObjectE.exit

14:                                               ; preds = %10
  %15 = getelementptr inbounds nuw i8, ptr %0, i64 24
  %16 = load i32, ptr %15, align 8, !tbaa !30
  %17 = add nsw i32 %16, -1
  store i32 %17, ptr %15, align 8, !tbaa !30
  br label %_ZNK6icu_7712UnifiedCache13removeHardRefEPKNS_12SharedObjectE.exit

_ZNK6icu_7712UnifiedCache13removeHardRefEPKNS_12SharedObjectE.exit: ; preds = %4, %10, %14
  %18 = getelementptr inbounds nuw i8, ptr %1, i64 8
  %19 = load ptr, ptr %18, align 8, !tbaa !41
  store ptr %19, ptr %2, align 8, !tbaa !48
  %.not.i8 = icmp eq ptr %19, null
  br i1 %.not.i8, label %_ZNK6icu_7712UnifiedCache10addHardRefEPKNS_12SharedObjectE.exit, label %20

20:                                               ; preds = %_ZNK6icu_7712UnifiedCache13removeHardRefEPKNS_12SharedObjectE.exit
  %21 = getelementptr inbounds nuw i8, ptr %19, i64 12
  %22 = atomicrmw add ptr %21, i32 1 seq_cst, align 4
  %23 = icmp eq i32 %22, 0
  br i1 %23, label %24, label %_ZNK6icu_7712UnifiedCache10addHardRefEPKNS_12SharedObjectE.exit

24:                                               ; preds = %20
  %25 = getelementptr inbounds nuw i8, ptr %0, i64 24
  %26 = load i32, ptr %25, align 8, !tbaa !30
  %27 = add nsw i32 %26, 1
  store i32 %27, ptr %25, align 8, !tbaa !30
  br label %_ZNK6icu_7712UnifiedCache10addHardRefEPKNS_12SharedObjectE.exit

_ZNK6icu_7712UnifiedCache10addHardRefEPKNS_12SharedObjectE.exit: ; preds = %_ZNK6icu_7712UnifiedCache13removeHardRefEPKNS_12SharedObjectE.exit, %20, %24
  ret void
}